; ModuleID = 'source-C-CXX/29/1231.cpp'
source_filename = "source-C-CXX/29/1231.cpp"
target datalayout = "e-m:e-p270:32:32-p271:32:32-p272:64:64-i64:64-f80:128-n8:16:32:64-S128"
target triple = "x86_64-pc-linux-gnu"

%"class.std::ios_base::Init" = type { i8 }
%"class.std::basic_istream" = type { i32 (...)**, i64, %"class.std::basic_ios" }
%"class.std::basic_ios" = type { %"class.std::ios_base", %"class.std::basic_ostream"*, i8, i8, %"class.std::basic_streambuf"*, %"class.std::ctype"*, %"class.std::num_put"*, %"class.std::num_get"* }
%"class.std::ios_base" = type { i32 (...)**, i64, i64, i32, i32, i32, %"struct.std::ios_base::_Callback_list"*, %"struct.std::ios_base::_Words", [8 x %"struct.std::ios_base::_Words"], i32, %"struct.std::ios_base::_Words"*, %"class.std::locale" }
%"struct.std::ios_base::_Callback_list" = type { %"struct.std::ios_base::_Callback_list"*, void (i32, %"class.std::ios_base"*, i32)*, i32, i32 }
%"struct.std::ios_base::_Words" = type { i8*, i64 }
%"class.std::locale" = type { %"class.std::locale::_Impl"* }
%"class.std::locale::_Impl" = type { i32, %"class.std::locale::facet"**, i64, %"class.std::locale::facet"**, i8** }
%"class.std::locale::facet" = type <{ i32 (...)**, i32, [4 x i8] }>
%"class.std::basic_ostream" = type { i32 (...)**, %"class.std::basic_ios" }
%"class.std::basic_streambuf" = type { i32 (...)**, i8*, i8*, i8*, i8*, i8*, i8*, %"class.std::locale" }
%"class.std::ctype" = type <{ %"class.std::locale::facet.base", [4 x i8], %struct.__locale_struct*, i8, [7 x i8], i32*, i32*, i16*, i8, [256 x i8], [256 x i8], i8, [6 x i8] }>
%"class.std::locale::facet.base" = type <{ i32 (...)**, i32 }>
%struct.__locale_struct = type { [13 x %struct.__locale_data*], i16*, i32*, i32*, [13 x i8*] }
%struct.__locale_data = type opaque
%"class.std::num_put" = type { %"class.std::locale::facet.base", [4 x i8] }
%"class.std::num_get" = type { %"class.std::locale::facet.base", [4 x i8] }

@_ZStL8__ioinit = internal global %"class.std::ios_base::Init" zeroinitializer, align 1
@__dso_handle = external hidden global i8
@_ZSt3cin = external global %"class.std::basic_istream", align 8
@_ZSt4cout = external global %"class.std::basic_ostream", align 8
@llvm.global_ctors = appending global [1 x { i32, void ()*, i8* }] [{ i32, void ()*, i8* } { i32 65535, void ()* @_GLOBAL__sub_I_1231.cpp, i8* null }]

declare void @_ZNSt8ios_base4InitC1Ev(%"class.std::ios_base::Init"* nonnull align 1 dereferenceable(1)) unnamed_addr #0

; Function Attrs: nounwind
declare void @_ZNSt8ios_base4InitD1Ev(%"class.std::ios_base::Init"* nonnull align 1 dereferenceable(1)) unnamed_addr #1

; Function Attrs: nofree nounwind
declare i32 @__cxa_atexit(void (i8*)*, i8*, i8*) local_unnamed_addr #2

; Function Attrs: mustprogress norecurse sspstrong uwtable
define dso_local i32 @main() local_unnamed_addr #3 {
  %1 = alloca i32, align 4
  %2 = bitcast i32* %1 to i8*
  call void @llvm.lifetime.start.p0i8(i64 4, i8* nonnull %2) #8
  %3 = call nonnull align 8 dereferenceable(16) %"class.std::basic_istream"* @_ZNSirsERi(%"class.std::basic_istream"* nonnull align 8 dereferenceable(16) @_ZSt3cin, i32* nonnull align 4 dereferenceable(4) %1)
  %4 = load i32, i32* %1, align 4, !tbaa !5
  %5 = icmp slt i32 %4, 1
  br i1 %5, label %65, label %6

6:                                                ; preds = %0
  %7 = icmp ult i32 %4, 8
  br i1 %7, label %46, label %8

8:                                                ; preds = %6
  %9 = and i32 %4, -8
  %10 = or i32 %9, 1
  br label %11

11:                                               ; preds = %11, %8
  %12 = phi i32 [ 0, %8 ], [ %39, %11 ]
  %13 = phi <4 x i32> [ zeroinitializer, %8 ], [ %37, %11 ]
  %14 = phi <4 x i32> [ zeroinitializer, %8 ], [ %38, %11 ]
  %15 = phi <4 x i32> [ <i32 1, i32 2, i32 3, i32 4>, %8 ], [ %40, %11 ]
  %16 = add <4 x i32> %15, <i32 4, i32 4, i32 4, i32 4>
  %17 = urem <4 x i32> %15, <i32 7, i32 7, i32 7, i32 7>
  %18 = urem <4 x i32> %16, <i32 7, i32 7, i32 7, i32 7>
  %19 = icmp eq <4 x i32> %17, zeroinitializer
  %20 = icmp eq <4 x i32> %18, zeroinitializer
  %21 = urem <4 x i32> %15, <i32 10, i32 10, i32 10, i32 10>
  %22 = urem <4 x i32> %16, <i32 10, i32 10, i32 10, i32 10>
  %23 = icmp eq <4 x i32> %21, <i32 7, i32 7, i32 7, i32 7>
  %24 = icmp eq <4 x i32> %22, <i32 7, i32 7, i32 7, i32 7>
  %25 = or <4 x i1> %19, %23
  %26 = or <4 x i1> %20, %24
  %27 = add nsw <4 x i32> %15, <i32 -70, i32 -70, i32 -70, i32 -70>
  %28 = add <4 x i32> %15, <i32 -66, i32 -66, i32 -66, i32 -66>
  %29 = icmp ult <4 x i32> %27, <i32 10, i32 10, i32 10, i32 10>
  %30 = icmp ult <4 x i32> %28, <i32 10, i32 10, i32 10, i32 10>
  %31 = select <4 x i1> %25, <4 x i1> <i1 true, i1 true, i1 true, i1 true>, <4 x i1> %29
  %32 = select <4 x i1> %26, <4 x i1> <i1 true, i1 true, i1 true, i1 true>, <4 x i1> %30
  %33 = mul nsw <4 x i32> %15, %15
  %34 = mul nsw <4 x i32> %16, %16
  %35 = select <4 x i1> %31, <4 x i32> zeroinitializer, <4 x i32> %33
  %36 = select <4 x i1> %32, <4 x i32> zeroinitializer, <4 x i32> %34
  %37 = add <4 x i32> %35, %13
  %38 = add <4 x i32> %36, %14
  %39 = add nuw i32 %12, 8
  %40 = add <4 x i32> %15, <i32 8, i32 8, i32 8, i32 8>
  %41 = icmp eq i32 %39, %9
  br i1 %41, label %42, label %11, !llvm.loop !9

42:                                               ; preds = %11
  %43 = add <4 x i32> %38, %37
  %44 = call i32 @llvm.vector.reduce.add.v4i32(<4 x i32> %43)
  %45 = icmp eq i32 %4, %9
  br i1 %45, label %65, label %46

46:                                               ; preds = %6, %42
  %47 = phi i32 [ 0, %6 ], [ %44, %42 ]
  %48 = phi i32 [ 1, %6 ], [ %10, %42 ]
  br label %49

49:                                               ; preds = %46, %49
  %50 = phi i32 [ %62, %49 ], [ %47, %46 ]
  %51 = phi i32 [ %63, %49 ], [ %48, %46 ]
  %52 = urem i32 %51, 7
  %53 = icmp eq i32 %52, 0
  %54 = urem i32 %51, 10
  %55 = icmp eq i32 %54, 7
  %56 = or i1 %53, %55
  %57 = add nsw i32 %51, -70
  %58 = icmp ult i32 %57, 10
  %59 = select i1 %56, i1 true, i1 %58
  %60 = mul nsw i32 %51, %51
  %61 = select i1 %59, i32 0, i32 %60
  %62 = add nuw nsw i32 %61, %50
  %63 = add nuw i32 %51, 1
  %64 = icmp eq i32 %51, %4
  br i1 %64, label %65, label %49, !llvm.loop !12

65:                                               ; preds = %49, %42, %0
  %66 = phi i32 [ 0, %0 ], [ %44, %42 ], [ %62, %49 ]
  %67 = call nonnull align 8 dereferenceable(8) %"class.std::basic_ostream"* @_ZNSolsEi(%"class.std::basic_ostream"* nonnull align 8 dereferenceable(8) @_ZSt4cout, i32 %66)
  %68 = bitcast %"class.std::basic_ostream"* %67 to i8**
  %69 = load i8*, i8** %68, align 8, !tbaa !14
  %70 = getelementptr i8, i8* %69, i64 -24
  %71 = bitcast i8* %70 to i64*
  %72 = load i64, i64* %71, align 8
  %73 = bitcast %"class.std::basic_ostream"* %67 to i8*
  %74 = add nsw i64 %72, 240
  %75 = getelementptr inbounds i8, i8* %73, i64 %74
  %76 = bitcast i8* %75 to %"class.std::ctype"**
  %77 = load %"class.std::ctype"*, %"class.std::ctype"** %76, align 8, !tbaa !16
  %78 = icmp eq %"class.std::ctype"* %77, null
  br i1 %78, label %79, label %80

79:                                               ; preds = %65
  call void @_ZSt16__throw_bad_castv() #9
  unreachable

80:                                               ; preds = %65
  %81 = getelementptr inbounds %"class.std::ctype", %"class.std::ctype"* %77, i64 0, i32 8
  %82 = load i8, i8* %81, align 8, !tbaa !20
  %83 = icmp eq i8 %82, 0
  br i1 %83, label %87, label %84

84:                                               ; preds = %80
  %85 = getelementptr inbounds %"class.std::ctype", %"class.std::ctype"* %77, i64 0, i32 9, i64 10
  %86 = load i8, i8* %85, align 1, !tbaa !22
  br label %93

87:                                               ; preds = %80
  call void @_ZNKSt5ctypeIcE13_M_widen_initEv(%"class.std::ctype"* nonnull align 8 dereferenceable(570) %77)
  %88 = bitcast %"class.std::ctype"* %77 to i8 (%"class.std::ctype"*, i8)***
  %89 = load i8 (%"class.std::ctype"*, i8)**, i8 (%"class.std::ctype"*, i8)*** %88, align 8, !tbaa !14
  %90 = getelementptr inbounds i8 (%"class.std::ctype"*, i8)*, i8 (%"class.std::ctype"*, i8)** %89, i64 6
  %91 = load i8 (%"class.std::ctype"*, i8)*, i8 (%"class.std::ctype"*, i8)** %90, align 8
  %92 = call signext i8 %91(%"class.std::ctype"* nonnull align 8 dereferenceable(570) %77, i8 signext 10)
  br label %93

93:                                               ; preds = %84, %87
  %94 = phi i8 [ %86, %84 ], [ %92, %87 ]
  %95 = call nonnull align 8 dereferenceable(8) %"class.std::basic_ostream"* @_ZNSo3putEc(%"class.std::basic_ostream"* nonnull align 8 dereferenceable(8) %67, i8 signext %94)
  %96 = call nonnull align 8 dereferenceable(8) %"class.std::basic_ostream"* @_ZNSo5flushEv(%"class.std::basic_ostream"* nonnull align 8 dereferenceable(8) %95)
  call void @llvm.lifetime.end.p0i8(i64 4, i8* nonnull %2) #8
  ret i32 0
}

; Function Attrs: argmemonly mustprogress nofree nosync nounwind willreturn
declare void @llvm.lifetime.start.p0i8(i64 immarg, i8* nocapture) #4

declare nonnull align 8 dereferenceable(16) %"class.std::basic_istream"* @_ZNSirsERi(%"class.std::basic_istream"* nonnull align 8 dereferenceable(16), i32* nonnull align 4 dereferenceable(4)) local_unnamed_addr #0

declare nonnull align 8 dereferenceable(8) %"class.std::basic_ostream"* @_ZNSolsEi(%"class.std::basic_ostream"* nonnull align 8 dereferenceable(8), i32) local_unnamed_addr #0

; Function Attrs: argmemonly mustprogress nofree nosync nounwind willreturn
declare void @llvm.lifetime.end.p0i8(i64 immarg, i8* nocapture) #4

declare nonnull align 8 dereferenceable(8) %"class.std::basic_ostream"* @_ZNSo3putEc(%"class.std::basic_ostream"* nonnull align 8 dereferenceable(8), i8 signext) local_unnamed_addr #0

declare nonnull align 8 dereferenceable(8) %"class.std::basic_ostream"* @_ZNSo5flushEv(%"class.std::basic_ostream"* nonnull align 8 dereferenceable(8)) local_unnamed_addr #0

; Function Attrs: noreturn
declare void @_ZSt16__throw_bad_castv() local_unnamed_addr #5

declare void @_ZNKSt5ctypeIcE13_M_widen_initEv(%"class.std::ctype"* nonnull align 8 dereferenceable(570)) local_unnamed_addr #0

; Function Attrs: sspstrong uwtable
define internal void @_GLOBAL__sub_I_1231.cpp() #6 section ".text.startup" {
  tail call void @_ZNSt8ios_base4InitC1Ev(%"class.std::ios_base::Init"* nonnull align 1 dereferenceable(1) @_ZStL8__ioinit)
  %1 = tail call i32 @__cxa_atexit(void (i8*)* bitcast (void (%"class.std::ios_base::Init"*)* @_ZNSt8ios_base4InitD1Ev to void (i8*)*), i8* getelementptr inbounds (%"class.std::ios_base::Init", %"class.std::ios_base::Init"* @_ZStL8__ioinit, i64 0, i32 0), i8* nonnull @__dso_handle) #8
  ret void
}

; Function Attrs: nofree nosync nounwind readnone willreturn
declare i32 @llvm.vector.reduce.add.v4i32(<4 x i32>) #7


!llvm.module.flags = !{!0, !1, !2, !3}
!llvm.ident = !{!4}

!0 = !{i32 1, !"wchar_size", i32 4}
!1 = !{i32 7, !"PIC Level", i32 2}
!2 = !{i32 7, !"PIE Level", i32 2}
!3 = !{i32 7, !"uwtable", i32 1}
!4 = !{!"clang version 13.0.0"}
!5 = !{!6, !6, i64 0}
!6 = !{!"int", !7, i64 0}
!7 = !{!"omnipotent char", !8, i64 0}
!8 = !{!"Simple C++ TBAA"}
!9 = distinct !{!9, !10, !11}
!10 = !{!"llvm.loop.mustprogress"}
!11 = !{!"llvm.loop.isvectorized", i32 1}
!12 = distinct !{!12, !10, !13, !11}
!13 = !{!"llvm.loop.unroll.runtime.disable"}
!14 = !{!15, !15, i64 0}
!15 = !{!"vtable pointer", !8, i64 0}
!16 = !{!17, !18, i64 240}
!17 = !{!"_ZTSSt9basic_iosIcSt11char_traitsIcEE", !18, i64 216, !7, i64 224, !19, i64 225, !18, i64 232, !18, i64 240, !18, i64 248, !18, i64 256}
!18 = !{!"any pointer", !7, i64 0}
!19 = !{!"bool", !7, i64 0}
!20 = !{!21, !7, i64 56}
!21 = !{!"_ZTSSt5ctypeIcE", !18, i64 16, !19, i64 24, !18, i64 32, !18, i64 40, !18, i64 48, !7, i64 56, !7, i64 57, !7, i64 313, !7, i64 569}
!22 = !{!7, !7, i64 0}
